target datalayout = "e-m:e-p270:32:32-p271:32:32-p272:64:64-i64:64-i128:128-f80:128-n8:16:32:64-S128"
target triple = "x86_64-pc-linux-gnu"

%struct.endianess = type { i32, i32 }
%struct.AVCodecTag = type { i32, i32 }
%struct.AVFormatContext = type { ptr, ptr, ptr, ptr, ptr, i32, i32, ptr, i32, ptr, i32, ptr, ptr, i64, i64, i64, i32, i32, i32, i64, i64, ptr, i32, i32, ptr, i32, i32, i32, i32, ptr, i64, i32, i32, %struct.AVIOInterruptCB, i32, i32, i32, i32, i64, i32, i32, i32, i32, i32, i32, i32, i32, i32, i32, i32, i32, i64, i32, i32, i32, i32, i32, ptr, ptr, ptr, ptr, i32, ptr, ptr, ptr, ptr, i32, ptr, ptr, i64, ptr, ptr, ptr, i64 }
%struct.AVIOInterruptCB = type { ptr, ptr }
%struct.AVStream = type { ptr, i32, i32, ptr, ptr, %struct.AVRational, i64, i64, i64, i32, i32, %struct.AVRational, ptr, %struct.AVRational, %struct.AVPacket, i32, %struct.AVRational, i32 }
%struct.AVPacket = type { ptr, i64, i64, ptr, i32, i32, i32, ptr, i32, i64, i64, ptr, ptr, %struct.AVRational }
%struct.AVRational = type { i32, i32 }
%struct.AVCodecParameters = type { i32, i32, i32, ptr, i32, ptr, i32, i32, i64, i32, i32, i32, i32, i32, i32, %struct.AVRational, %struct.AVRational, i32, i32, i32, i32, i32, i32, i32, %struct.AVChannelLayout, i32, i32, i32, i32, i32, i32 }
%struct.AVChannelLayout = type { i32, i32, %union.anon, ptr }
%union.anon = type { i64 }
%union.av_intfloat32 = type { i32 }

@ff_codec_ircam_le_tags = external constant [0 x %struct.AVCodecTag], align 4
@ff_codec_ircam_be_tags = external constant [0 x %struct.AVCodecTag], align 4
@.str.3 = private unnamed_addr constant [16 x i8] c"unknown tag %x\0A\00", align 1

; Function Attrs: alwaysinline nounwind uwtable
define internal float @av_int2float(i32 noundef %0) #3 {
  %2 = alloca i32, align 4
  %3 = alloca %union.av_intfloat32, align 4
  store i32 %0, ptr %2, align 4, !tbaa !16
  call void @llvm.lifetime.start.p0(i64 4, ptr %3) #5
  %4 = load i32, ptr %2, align 4, !tbaa !16
  store i32 %4, ptr %3, align 4, !tbaa !13
  %5 = load float, ptr %3, align 4, !tbaa !13
  call void @llvm.lifetime.end.p0(i64 4, ptr %3) #5
  ret float %5
}

; Function Attrs: nounwind uwtable
define internal i32 @ircam_read_header(ptr noundef %0) #0 {
  %2 = alloca i32, align 4
  %3 = alloca ptr, align 8
  %4 = alloca i32, align 4
  %5 = alloca i32, align 4
  %6 = alloca i32, align 4
  %7 = alloca i32, align 4
  %8 = alloca ptr, align 8
  %9 = alloca i32, align 4
  %10 = alloca i32, align 4
  %11 = alloca ptr, align 8
  %12 = alloca i32, align 4
  store ptr %0, ptr %3, align 8, !tbaa !14
  call void @llvm.lifetime.start.p0(i64 4, ptr %4) #5
  call void @llvm.lifetime.start.p0(i64 4, ptr %5) #5
  call void @llvm.lifetime.start.p0(i64 4, ptr %6) #5
  call void @llvm.lifetime.start.p0(i64 4, ptr %7) #5
  call void @llvm.lifetime.start.p0(i64 8, ptr %8) #5
  call void @llvm.lifetime.start.p0(i64 4, ptr %9) #5
  store i32 -1, ptr %9, align 4, !tbaa !16
  call void @llvm.lifetime.start.p0(i64 4, ptr %10) #5
  call void @llvm.lifetime.start.p0(i64 8, ptr %11) #5
  %13 = load ptr, ptr %3, align 8, !tbaa !14
  %14 = getelementptr inbounds nuw %struct.AVFormatContext, ptr %13, i32 0, i32 4
  %15 = load ptr, ptr %14, align 8, !tbaa !17
  %16 = call i32 @avio_rl32(ptr noundef %15)
  store i32 %16, ptr %4, align 4, !tbaa !16
  store i32 0, ptr %10, align 4, !tbaa !16
  br label %17

17:                                               ; preds = %35, %1
  %18 = load i32, ptr %10, align 4, !tbaa !16
  %19 = icmp slt i32 %18, 7
  br i1 %19, label %20, label %38

20:                                               ; preds = %17
  %21 = load i32, ptr %4, align 4, !tbaa !16
  %22 = load i32, ptr %10, align 4, !tbaa !16
  %23 = sext i32 %22 to i64
  %24 = getelementptr inbounds [7 x %struct.endianess], ptr @table, i64 0, i64 %23
  %25 = getelementptr inbounds nuw %struct.endianess, ptr %24, i32 0, i32 0
  %26 = load i32, ptr %25, align 8, !tbaa !32
  %27 = icmp eq i32 %21, %26
  br i1 %27, label %28, label %34

28:                                               ; preds = %20
  %29 = load i32, ptr %10, align 4, !tbaa !16
  %30 = sext i32 %29 to i64
  %31 = getelementptr inbounds [7 x %struct.endianess], ptr @table, i64 0, i64 %30
  %32 = getelementptr inbounds nuw %struct.endianess, ptr %31, i32 0, i32 1
  %33 = load i32, ptr %32, align 4, !tbaa !34
  store i32 %33, ptr %9, align 4, !tbaa !16
  br label %38

34:                                               ; preds = %20
  br label %35

35:                                               ; preds = %34
  %36 = load i32, ptr %10, align 4, !tbaa !16
  %37 = add nsw i32 %36, 1
  store i32 %37, ptr %10, align 4, !tbaa !16
  br label %17, !llvm.loop !35

38:                                               ; preds = %28, %17
  %39 = load i32, ptr %9, align 4, !tbaa !16
  %40 = icmp eq i32 %39, 1
  br i1 %40, label %41, label %57

41:                                               ; preds = %38
  %42 = load ptr, ptr %3, align 8, !tbaa !14
  %43 = getelementptr inbounds nuw %struct.AVFormatContext, ptr %42, i32 0, i32 4
  %44 = load ptr, ptr %43, align 8, !tbaa !17
  %45 = call i32 @avio_rl32(ptr noundef %44)
  %46 = call nsz float @av_int2float(i32 noundef %45)
  %47 = call i64 @llvm.lrint.i64.f32(float %46)
  %48 = trunc i64 %47 to i32
  store i32 %48, ptr %5, align 4, !tbaa !16
  %49 = load ptr, ptr %3, align 8, !tbaa !14
  %50 = getelementptr inbounds nuw %struct.AVFormatContext, ptr %49, i32 0, i32 4
  %51 = load ptr, ptr %50, align 8, !tbaa !17
  %52 = call i32 @avio_rl32(ptr noundef %51)
  store i32 %52, ptr %6, align 4, !tbaa !16
  %53 = load ptr, ptr %3, align 8, !tbaa !14
  %54 = getelementptr inbounds nuw %struct.AVFormatContext, ptr %53, i32 0, i32 4
  %55 = load ptr, ptr %54, align 8, !tbaa !17
  %56 = call i32 @avio_rl32(ptr noundef %55)
  store i32 %56, ptr %7, align 4, !tbaa !16
  store ptr @ff_codec_ircam_le_tags, ptr %8, align 8, !tbaa !37
  br label %78

57:                                               ; preds = %38
  %58 = load i32, ptr %9, align 4, !tbaa !16
  %59 = icmp eq i32 %58, 0
  br i1 %59, label %60, label %76

60:                                               ; preds = %57
  %61 = load ptr, ptr %3, align 8, !tbaa !14
  %62 = getelementptr inbounds nuw %struct.AVFormatContext, ptr %61, i32 0, i32 4
  %63 = load ptr, ptr %62, align 8, !tbaa !17
  %64 = call i32 @avio_rb32(ptr noundef %63)
  %65 = call nsz float @av_int2float(i32 noundef %64)
  %66 = call i64 @llvm.lrint.i64.f32(float %65)
  %67 = trunc i64 %66 to i32
  store i32 %67, ptr %5, align 4, !tbaa !16
  %68 = load ptr, ptr %3, align 8, !tbaa !14
  %69 = getelementptr inbounds nuw %struct.AVFormatContext, ptr %68, i32 0, i32 4
  %70 = load ptr, ptr %69, align 8, !tbaa !17
  %71 = call i32 @avio_rb32(ptr noundef %70)
  store i32 %71, ptr %6, align 4, !tbaa !16
  %72 = load ptr, ptr %3, align 8, !tbaa !14
  %73 = getelementptr inbounds nuw %struct.AVFormatContext, ptr %72, i32 0, i32 4
  %74 = load ptr, ptr %73, align 8, !tbaa !17
  %75 = call i32 @avio_rb32(ptr noundef %74)
  store i32 %75, ptr %7, align 4, !tbaa !16
  store ptr @ff_codec_ircam_be_tags, ptr %8, align 8, !tbaa !37
  br label %77

76:                                               ; preds = %57
  store i32 -1094995529, ptr %2, align 4
  store i32 1, ptr %12, align 4
  br label %170

77:                                               ; preds = %60
  br label %78

78:                                               ; preds = %77, %41
  %79 = load i32, ptr %6, align 4, !tbaa !16
  %80 = icmp ne i32 %79, 0
  br i1 %80, label %81, label %84

81:                                               ; preds = %78
  %82 = load i32, ptr %5, align 4, !tbaa !16
  %83 = icmp ne i32 %82, 0
  br i1 %83, label %85, label %84

84:                                               ; preds = %81, %78
  store i32 -1094995529, ptr %2, align 4
  store i32 1, ptr %12, align 4
  br label %170

85:                                               ; preds = %81
  %86 = load ptr, ptr %3, align 8, !tbaa !14
  %87 = call ptr @avformat_new_stream(ptr noundef %86, ptr noundef null)
  store ptr %87, ptr %11, align 8, !tbaa !39
  %88 = load ptr, ptr %11, align 8, !tbaa !39
  %89 = icmp ne ptr %88, null
  br i1 %89, label %91, label %90

90:                                               ; preds = %85
  store i32 -12, ptr %2, align 4
  store i32 1, ptr %12, align 4
  br label %170

91:                                               ; preds = %85
  %92 = load ptr, ptr %11, align 8, !tbaa !39
  %93 = getelementptr inbounds nuw %struct.AVStream, ptr %92, i32 0, i32 3
  %94 = load ptr, ptr %93, align 8, !tbaa !41
  %95 = getelementptr inbounds nuw %struct.AVCodecParameters, ptr %94, i32 0, i32 0
  store i32 1, ptr %95, align 8, !tbaa !48
  %96 = load i32, ptr %6, align 4, !tbaa !16
  %97 = load ptr, ptr %11, align 8, !tbaa !39
  %98 = getelementptr inbounds nuw %struct.AVStream, ptr %97, i32 0, i32 3
  %99 = load ptr, ptr %98, align 8, !tbaa !41
  %100 = getelementptr inbounds nuw %struct.AVCodecParameters, ptr %99, i32 0, i32 24
  %101 = getelementptr inbounds nuw %struct.AVChannelLayout, ptr %100, i32 0, i32 1
  store i32 %96, ptr %101, align 4, !tbaa !51
  %102 = load ptr, ptr %11, align 8, !tbaa !39
  %103 = getelementptr inbounds nuw %struct.AVStream, ptr %102, i32 0, i32 3
  %104 = load ptr, ptr %103, align 8, !tbaa !41
  %105 = getelementptr inbounds nuw %struct.AVCodecParameters, ptr %104, i32 0, i32 24
  %106 = getelementptr inbounds nuw %struct.AVChannelLayout, ptr %105, i32 0, i32 1
  %107 = load i32, ptr %106, align 4, !tbaa !51
  %108 = icmp ugt i32 %107, 512
  br i1 %108, label %109, label %110

109:                                              ; preds = %91
  store i32 -38, ptr %2, align 4
  store i32 1, ptr %12, align 4
  br label %170

110:                                              ; preds = %91
  %111 = load i32, ptr %5, align 4, !tbaa !16
  %112 = load ptr, ptr %11, align 8, !tbaa !39
  %113 = getelementptr inbounds nuw %struct.AVStream, ptr %112, i32 0, i32 3
  %114 = load ptr, ptr %113, align 8, !tbaa !41
  %115 = getelementptr inbounds nuw %struct.AVCodecParameters, ptr %114, i32 0, i32 25
  store i32 %111, ptr %115, align 8, !tbaa !52
  %116 = load ptr, ptr %8, align 8, !tbaa !37
  %117 = load i32, ptr %7, align 4, !tbaa !16
  %118 = call i32 @ff_codec_get_id(ptr noundef %116, i32 noundef %117)
  %119 = load ptr, ptr %11, align 8, !tbaa !39
  %120 = getelementptr inbounds nuw %struct.AVStream, ptr %119, i32 0, i32 3
  %121 = load ptr, ptr %120, align 8, !tbaa !41
  %122 = getelementptr inbounds nuw %struct.AVCodecParameters, ptr %121, i32 0, i32 1
  store i32 %118, ptr %122, align 4, !tbaa !53
  %123 = load ptr, ptr %11, align 8, !tbaa !39
  %124 = getelementptr inbounds nuw %struct.AVStream, ptr %123, i32 0, i32 3
  %125 = load ptr, ptr %124, align 8, !tbaa !41
  %126 = getelementptr inbounds nuw %struct.AVCodecParameters, ptr %125, i32 0, i32 1
  %127 = load i32, ptr %126, align 4, !tbaa !53
  %128 = icmp eq i32 %127, 0
  br i1 %128, label %129, label %132

129:                                              ; preds = %110
  %130 = load ptr, ptr %3, align 8, !tbaa !14
  %131 = load i32, ptr %7, align 4, !tbaa !16
  call void (ptr, i32, ptr, ...) @av_log(ptr noundef %130, i32 noundef 16, ptr noundef @.str.3, i32 noundef %131)
  store i32 -1094995529, ptr %2, align 4
  store i32 1, ptr %12, align 4
  br label %170

132:                                              ; preds = %110
  %133 = load ptr, ptr %11, align 8, !tbaa !39
  %134 = getelementptr inbounds nuw %struct.AVStream, ptr %133, i32 0, i32 3
  %135 = load ptr, ptr %134, align 8, !tbaa !41
  %136 = getelementptr inbounds nuw %struct.AVCodecParameters, ptr %135, i32 0, i32 1
  %137 = load i32, ptr %136, align 4, !tbaa !53
  %138 = call i32 @av_get_bits_per_sample(i32 noundef %137)
  %139 = load ptr, ptr %11, align 8, !tbaa !39
  %140 = getelementptr inbounds nuw %struct.AVStream, ptr %139, i32 0, i32 3
  %141 = load ptr, ptr %140, align 8, !tbaa !41
  %142 = getelementptr inbounds nuw %struct.AVCodecParameters, ptr %141, i32 0, i32 9
  store i32 %138, ptr %142, align 8, !tbaa !54
  %143 = load ptr, ptr %11, align 8, !tbaa !39
  %144 = getelementptr inbounds nuw %struct.AVStream, ptr %143, i32 0, i32 3
  %145 = load ptr, ptr %144, align 8, !tbaa !41
  %146 = getelementptr inbounds nuw %struct.AVCodecParameters, ptr %145, i32 0, i32 9
  %147 = load i32, ptr %146, align 8, !tbaa !54
  %148 = load ptr, ptr %11, align 8, !tbaa !39
  %149 = getelementptr inbounds nuw %struct.AVStream, ptr %148, i32 0, i32 3
  %150 = load ptr, ptr %149, align 8, !tbaa !41
  %151 = getelementptr inbounds nuw %struct.AVCodecParameters, ptr %150, i32 0, i32 24
  %152 = getelementptr inbounds nuw %struct.AVChannelLayout, ptr %151, i32 0, i32 1
  %153 = load i32, ptr %152, align 4, !tbaa !51
  %154 = mul nsw i32 %147, %153
  %155 = sdiv i32 %154, 8
  %156 = load ptr, ptr %11, align 8, !tbaa !39
  %157 = getelementptr inbounds nuw %struct.AVStream, ptr %156, i32 0, i32 3
  %158 = load ptr, ptr %157, align 8, !tbaa !41
  %159 = getelementptr inbounds nuw %struct.AVCodecParameters, ptr %158, i32 0, i32 26
  store i32 %155, ptr %159, align 4, !tbaa !55
  %160 = load ptr, ptr %11, align 8, !tbaa !39
  %161 = load ptr, ptr %11, align 8, !tbaa !39
  %162 = getelementptr inbounds nuw %struct.AVStream, ptr %161, i32 0, i32 3
  %163 = load ptr, ptr %162, align 8, !tbaa !41
  %164 = getelementptr inbounds nuw %struct.AVCodecParameters, ptr %163, i32 0, i32 25
  %165 = load i32, ptr %164, align 8, !tbaa !52
  call void @avpriv_set_pts_info(ptr noundef %160, i32 noundef 64, i32 noundef 1, i32 noundef %165)
  %166 = load ptr, ptr %3, align 8, !tbaa !14
  %167 = getelementptr inbounds nuw %struct.AVFormatContext, ptr %166, i32 0, i32 4
  %168 = load ptr, ptr %167, align 8, !tbaa !17
  %169 = call i64 @avio_skip(ptr noundef %168, i64 noundef 1008)
  store i32 0, ptr %2, align 4
  store i32 1, ptr %12, align 4
  br label %170

170:                                              ; preds = %132, %129, %109, %90, %84, %76
  call void @llvm.lifetime.end.p0(i64 8, ptr %11) #5
  call void @llvm.lifetime.end.p0(i64 4, ptr %10) #5
  call void @llvm.lifetime.end.p0(i64 4, ptr %9) #5
  call void @llvm.lifetime.end.p0(i64 8, ptr %8) #5
  call void @llvm.lifetime.end.p0(i64 4, ptr %7) #5
  call void @llvm.lifetime.end.p0(i64 4, ptr %6) #5
  call void @llvm.lifetime.end.p0(i64 4, ptr %5) #5
  call void @llvm.lifetime.end.p0(i64 4, ptr %4) #5
  %171 = load i32, ptr %2, align 4
  ret i32 %171
}